target datalayout = "e-m:e-p270:32:32-p271:32:32-p272:64:64-i64:64-i128:128-f80:128-n8:16:32:64-S128"
target triple = "x86_64-pc-linux-gnu"

%struct._object = type { %union.anon, ptr }
%union.anon = type { i64 }
%struct.PyVarObject = type { %struct._object, i64 }
%struct.anon = type { i32, i32 }
%struct.PyTupleObject = type { %struct.PyVarObject, [1 x ptr] }
%struct.methodcallerobject = type { %struct._object, ptr, ptr, ptr, ptr, ptr, ptr }
%struct.PyDictObject = type { %struct._object, i64, i64, ptr, ptr }

@.str.67 = private unnamed_addr constant [3 x i8] c"ON\00", align 1
@.str.89 = private unnamed_addr constant [10 x i8] c"functools\00", align 1
@.str.90 = private unnamed_addr constant [8 x i8] c"partial\00", align 1
@.str.91 = private unnamed_addr constant [3 x i8] c"NO\00", align 1

; Function Attrs: alwaysinline nounwind uwtable
define internal i32 @_Py_IsImmortal(ptr noundef %0) #4 {
  %2 = alloca ptr, align 8
  store ptr %0, ptr %2, align 8, !tbaa !4
  %3 = load ptr, ptr %2, align 8, !tbaa !4
  %4 = getelementptr inbounds nuw %struct._object, ptr %3, i32 0, i32 0
  %5 = getelementptr inbounds nuw %struct.anon, ptr %4, i32 0, i32 0
  %6 = load i32, ptr %5, align 8, !tbaa !20
  %7 = icmp slt i32 %6, 0
  %8 = zext i1 %7 to i32
  ret i32 %8
}

; Function Attrs: alwaysinline nounwind uwtable
define internal void @Py_INCREF(ptr noundef %0) #4 {
  %2 = alloca ptr, align 8
  %3 = alloca i32, align 4
  %4 = alloca i32, align 4
  store ptr %0, ptr %2, align 8, !tbaa !4
  call void @llvm.lifetime.start.p0(i64 4, ptr %3) #7
  %5 = load ptr, ptr %2, align 8, !tbaa !4
  %6 = getelementptr inbounds nuw %struct._object, ptr %5, i32 0, i32 0
  %7 = getelementptr inbounds nuw %struct.anon, ptr %6, i32 0, i32 0
  %8 = load i32, ptr %7, align 8, !tbaa !20
  store i32 %8, ptr %3, align 4, !tbaa !12
  %9 = load i32, ptr %3, align 4, !tbaa !12
  %10 = icmp slt i32 %9, 0
  br i1 %10, label %11, label %12

11:                                               ; preds = %1
  store i32 1, ptr %4, align 4
  br label %18

12:                                               ; preds = %1
  %13 = load i32, ptr %3, align 4, !tbaa !12
  %14 = add i32 %13, 1
  %15 = load ptr, ptr %2, align 8, !tbaa !4
  %16 = getelementptr inbounds nuw %struct._object, ptr %15, i32 0, i32 0
  %17 = getelementptr inbounds nuw %struct.anon, ptr %16, i32 0, i32 0
  store i32 %14, ptr %17, align 8, !tbaa !20
  store i32 0, ptr %4, align 4
  br label %18

18:                                               ; preds = %12, %11
  call void @llvm.lifetime.end.p0(i64 4, ptr %3) #7
  %19 = load i32, ptr %4, align 4
  switch i32 %19, label %21 [
    i32 0, label %20
    i32 1, label %20
  ]

20:                                               ; preds = %18, %18
  ret void

21:                                               ; preds = %18
  unreachable
}

; Function Attrs: inlinehint nounwind uwtable
define internal i64 @Py_SIZE(ptr noundef %0) #3 {
  %2 = alloca ptr, align 8
  store ptr %0, ptr %2, align 8, !tbaa !4
  %3 = load ptr, ptr %2, align 8, !tbaa !4
  %4 = getelementptr inbounds nuw %struct.PyVarObject, ptr %3, i32 0, i32 1
  %5 = load i64, ptr %4, align 8, !tbaa !60
  ret i64 %5
}

; Function Attrs: alwaysinline nounwind uwtable
define internal void @Py_DECREF(ptr noundef %0) #4 {
  %2 = alloca ptr, align 8
  store ptr %0, ptr %2, align 8, !tbaa !4
  %3 = load ptr, ptr %2, align 8, !tbaa !4
  %4 = call i32 @_Py_IsImmortal(ptr noundef %3)
  %5 = icmp ne i32 %4, 0
  br i1 %5, label %6, label %7

6:                                                ; preds = %1
  br label %16

7:                                                ; preds = %1
  %8 = load ptr, ptr %2, align 8, !tbaa !4
  %9 = getelementptr inbounds nuw %struct._object, ptr %8, i32 0, i32 0
  %10 = getelementptr inbounds nuw %struct.anon, ptr %9, i32 0, i32 0
  %11 = load i32, ptr %10, align 8, !tbaa !20
  %12 = add i32 %11, -1
  store i32 %12, ptr %10, align 8, !tbaa !20
  %13 = icmp eq i32 %12, 0
  br i1 %13, label %14, label %16

14:                                               ; preds = %7
  %15 = load ptr, ptr %2, align 8, !tbaa !4
  call void @_Py_Dealloc(ptr noundef %15)
  br label %16

16:                                               ; preds = %6, %14, %7
  ret void
}

; Function Attrs: inlinehint nounwind uwtable
define internal ptr @_Py_TYPE(ptr noundef %0) #3 {
  %2 = alloca ptr, align 8
  store ptr %0, ptr %2, align 8, !tbaa !4
  %3 = load ptr, ptr %2, align 8, !tbaa !4
  %4 = getelementptr inbounds nuw %struct._object, ptr %3, i32 0, i32 1
  %5 = load ptr, ptr %4, align 8, !tbaa !38
  ret ptr %5
}

; Function Attrs: inlinehint nounwind uwtable
define internal void @PyTuple_SET_ITEM(ptr noundef %0, i64 noundef %1, ptr noundef %2) #3 {
  %4 = alloca ptr, align 8
  %5 = alloca i64, align 8
  %6 = alloca ptr, align 8
  %7 = alloca ptr, align 8
  store ptr %0, ptr %4, align 8, !tbaa !4
  store i64 %1, ptr %5, align 8, !tbaa !18
  store ptr %2, ptr %6, align 8, !tbaa !4
  call void @llvm.lifetime.start.p0(i64 8, ptr %7) #7
  %8 = load ptr, ptr %4, align 8, !tbaa !4
  store ptr %8, ptr %7, align 8, !tbaa !9
  %9 = load ptr, ptr %6, align 8, !tbaa !4
  %10 = load ptr, ptr %7, align 8, !tbaa !9
  %11 = getelementptr inbounds nuw %struct.PyTupleObject, ptr %10, i32 0, i32 1
  %12 = load i64, ptr %5, align 8, !tbaa !18
  %13 = getelementptr [1 x ptr], ptr %11, i64 0, i64 %12
  store ptr %9, ptr %13, align 8, !tbaa !4
  call void @llvm.lifetime.end.p0(i64 8, ptr %7) #7
  ret void
}

; Function Attrs: inlinehint nounwind uwtable
define internal ptr @_Py_NewRef(ptr noundef %0) #3 {
  %2 = alloca ptr, align 8
  store ptr %0, ptr %2, align 8, !tbaa !4
  %3 = load ptr, ptr %2, align 8, !tbaa !4
  call void @Py_INCREF(ptr noundef %3)
  %4 = load ptr, ptr %2, align 8, !tbaa !4
  ret ptr %4
}

; Function Attrs: inlinehint nounwind uwtable
define internal i64 @PyTuple_GET_SIZE(ptr noundef %0) #3 {
  %2 = alloca ptr, align 8
  %3 = alloca ptr, align 8
  store ptr %0, ptr %2, align 8, !tbaa !4
  call void @llvm.lifetime.start.p0(i64 8, ptr %3) #7
  %4 = load ptr, ptr %2, align 8, !tbaa !4
  store ptr %4, ptr %3, align 8, !tbaa !9
  %5 = load ptr, ptr %3, align 8, !tbaa !9
  %6 = call i64 @Py_SIZE(ptr noundef %5)
  call void @llvm.lifetime.end.p0(i64 8, ptr %3) #7
  ret i64 %6
}

; Function Attrs: inlinehint nounwind uwtable
define internal i64 @PyDict_GET_SIZE(ptr noundef %0) #3 {
  %2 = alloca ptr, align 8
  %3 = alloca ptr, align 8
  store ptr %0, ptr %2, align 8, !tbaa !4
  call void @llvm.lifetime.start.p0(i64 8, ptr %3) #7
  %4 = load ptr, ptr %2, align 8, !tbaa !4
  store ptr %4, ptr %3, align 8, !tbaa !9
  %5 = load ptr, ptr %3, align 8, !tbaa !9
  %6 = getelementptr inbounds nuw %struct.PyDictObject, ptr %5, i32 0, i32 1
  %7 = load i64, ptr %6, align 8, !tbaa !100
  call void @llvm.lifetime.end.p0(i64 8, ptr %3) #7
  ret i64 %7
}

; Function Attrs: nounwind uwtable
define internal ptr @methodcaller_reduce(ptr noundef %0, ptr noundef %1) #0 {
  %3 = alloca ptr, align 8
  %4 = alloca ptr, align 8
  %5 = alloca ptr, align 8
  %6 = alloca i64, align 8
  %7 = alloca i64, align 8
  %8 = alloca ptr, align 8
  %9 = alloca i32, align 4
  %10 = alloca ptr, align 8
  %11 = alloca ptr, align 8
  %12 = alloca ptr, align 8
  %13 = alloca [2 x ptr], align 16
  store ptr %0, ptr %4, align 8, !tbaa !9
  store ptr %1, ptr %5, align 8, !tbaa !4
  %14 = load ptr, ptr %4, align 8, !tbaa !9
  %15 = getelementptr inbounds nuw %struct.methodcallerobject, ptr %14, i32 0, i32 3
  %16 = load ptr, ptr %15, align 8, !tbaa !93
  %17 = icmp ne ptr %16, null
  br i1 %17, label %18, label %24

18:                                               ; preds = %2
  %19 = load ptr, ptr %4, align 8, !tbaa !9
  %20 = getelementptr inbounds nuw %struct.methodcallerobject, ptr %19, i32 0, i32 3
  %21 = load ptr, ptr %20, align 8, !tbaa !93
  %22 = call i64 @PyDict_GET_SIZE(ptr noundef %21)
  %23 = icmp eq i64 %22, 0
  br i1 %23, label %24, label %67

24:                                               ; preds = %18, %2
  call void @llvm.lifetime.start.p0(i64 8, ptr %6) #7
  call void @llvm.lifetime.start.p0(i64 8, ptr %7) #7
  %25 = load ptr, ptr %4, align 8, !tbaa !9
  %26 = getelementptr inbounds nuw %struct.methodcallerobject, ptr %25, i32 0, i32 2
  %27 = load ptr, ptr %26, align 8, !tbaa !92
  %28 = call i64 @PyTuple_GET_SIZE(ptr noundef %27)
  store i64 %28, ptr %7, align 8, !tbaa !18
  call void @llvm.lifetime.start.p0(i64 8, ptr %8) #7
  %29 = load i64, ptr %7, align 8, !tbaa !18
  %30 = add i64 1, %29
  %31 = call ptr @PyTuple_New(i64 noundef %30)
  store ptr %31, ptr %8, align 8, !tbaa !4
  %32 = load ptr, ptr %8, align 8, !tbaa !4
  %33 = icmp eq ptr %32, null
  br i1 %33, label %34, label %35

34:                                               ; preds = %24
  store ptr null, ptr %3, align 8
  store i32 1, ptr %9, align 4
  br label %66

35:                                               ; preds = %24
  %36 = load ptr, ptr %8, align 8, !tbaa !4
  %37 = load ptr, ptr %4, align 8, !tbaa !9
  %38 = getelementptr inbounds nuw %struct.methodcallerobject, ptr %37, i32 0, i32 1
  %39 = load ptr, ptr %38, align 8, !tbaa !90
  %40 = call ptr @_Py_NewRef(ptr noundef %39)
  call void @PyTuple_SET_ITEM(ptr noundef %36, i64 noundef 0, ptr noundef %40)
  store i64 0, ptr %6, align 8, !tbaa !18
  br label %41

41:                                               ; preds = %58, %35
  %42 = load i64, ptr %6, align 8, !tbaa !18
  %43 = load i64, ptr %7, align 8, !tbaa !18
  %44 = icmp slt i64 %42, %43
  br i1 %44, label %45, label %61

45:                                               ; preds = %41
  call void @llvm.lifetime.start.p0(i64 8, ptr %10) #7
  %46 = load ptr, ptr %4, align 8, !tbaa !9
  %47 = getelementptr inbounds nuw %struct.methodcallerobject, ptr %46, i32 0, i32 2
  %48 = load ptr, ptr %47, align 8, !tbaa !92
  %49 = getelementptr inbounds nuw %struct.PyTupleObject, ptr %48, i32 0, i32 1
  %50 = load i64, ptr %6, align 8, !tbaa !18
  %51 = getelementptr [1 x ptr], ptr %49, i64 0, i64 %50
  %52 = load ptr, ptr %51, align 8, !tbaa !4
  store ptr %52, ptr %10, align 8, !tbaa !4
  %53 = load ptr, ptr %8, align 8, !tbaa !4
  %54 = load i64, ptr %6, align 8, !tbaa !18
  %55 = add i64 %54, 1
  %56 = load ptr, ptr %10, align 8, !tbaa !4
  %57 = call ptr @_Py_NewRef(ptr noundef %56)
  call void @PyTuple_SET_ITEM(ptr noundef %53, i64 noundef %55, ptr noundef %57)
  call void @llvm.lifetime.end.p0(i64 8, ptr %10) #7
  br label %58

58:                                               ; preds = %45
  %59 = load i64, ptr %6, align 8, !tbaa !18
  %60 = add i64 %59, 1
  store i64 %60, ptr %6, align 8, !tbaa !18
  br label %41, !llvm.loop !99

61:                                               ; preds = %41
  %62 = load ptr, ptr %4, align 8, !tbaa !9
  %63 = call ptr @_Py_TYPE(ptr noundef %62)
  %64 = load ptr, ptr %8, align 8, !tbaa !4
  %65 = call ptr (ptr, ...) @Py_BuildValue(ptr noundef @.str.67, ptr noundef %63, ptr noundef %64)
  store ptr %65, ptr %3, align 8
  store i32 1, ptr %9, align 4
  br label %66

66:                                               ; preds = %61, %34
  call void @llvm.lifetime.end.p0(i64 8, ptr %8) #7
  call void @llvm.lifetime.end.p0(i64 8, ptr %7) #7
  call void @llvm.lifetime.end.p0(i64 8, ptr %6) #7
  br label %93

67:                                               ; preds = %18
  call void @llvm.lifetime.start.p0(i64 8, ptr %11) #7
  call void @llvm.lifetime.start.p0(i64 8, ptr %12) #7
  call void @llvm.lifetime.start.p0(i64 16, ptr %13) #7
  %68 = call ptr @PyImport_ImportModuleAttrString(ptr noundef @.str.89, ptr noundef @.str.90)
  store ptr %68, ptr %11, align 8, !tbaa !4
  %69 = load ptr, ptr %11, align 8, !tbaa !4
  %70 = icmp ne ptr %69, null
  br i1 %70, label %72, label %71

71:                                               ; preds = %67
  store ptr null, ptr %3, align 8
  store i32 1, ptr %9, align 4
  br label %92

72:                                               ; preds = %67
  %73 = load ptr, ptr %4, align 8, !tbaa !9
  %74 = call ptr @_Py_TYPE(ptr noundef %73)
  %75 = getelementptr [2 x ptr], ptr %13, i64 0, i64 0
  store ptr %74, ptr %75, align 16, !tbaa !4
  %76 = load ptr, ptr %4, align 8, !tbaa !9
  %77 = getelementptr inbounds nuw %struct.methodcallerobject, ptr %76, i32 0, i32 1
  %78 = load ptr, ptr %77, align 8, !tbaa !90
  %79 = getelementptr [2 x ptr], ptr %13, i64 0, i64 1
  store ptr %78, ptr %79, align 8, !tbaa !4
  %80 = load ptr, ptr %11, align 8, !tbaa !4
  %81 = getelementptr inbounds [2 x ptr], ptr %13, i64 0, i64 0
  %82 = load ptr, ptr %4, align 8, !tbaa !9
  %83 = getelementptr inbounds nuw %struct.methodcallerobject, ptr %82, i32 0, i32 3
  %84 = load ptr, ptr %83, align 8, !tbaa !93
  %85 = call ptr @PyObject_VectorcallDict(ptr noundef %80, ptr noundef %81, i64 noundef 2, ptr noundef %84)
  store ptr %85, ptr %12, align 8, !tbaa !4
  %86 = load ptr, ptr %11, align 8, !tbaa !4
  call void @Py_DECREF(ptr noundef %86)
  %87 = load ptr, ptr %12, align 8, !tbaa !4
  %88 = load ptr, ptr %4, align 8, !tbaa !9
  %89 = getelementptr inbounds nuw %struct.methodcallerobject, ptr %88, i32 0, i32 2
  %90 = load ptr, ptr %89, align 8, !tbaa !92
  %91 = call ptr (ptr, ...) @Py_BuildValue(ptr noundef @.str.91, ptr noundef %87, ptr noundef %90)
  store ptr %91, ptr %3, align 8
  store i32 1, ptr %9, align 4
  br label %92

92:                                               ; preds = %72, %71
  call void @llvm.lifetime.end.p0(i64 16, ptr %13) #7
  call void @llvm.lifetime.end.p0(i64 8, ptr %12) #7
  call void @llvm.lifetime.end.p0(i64 8, ptr %11) #7
  br label %93

93:                                               ; preds = %92, %66
  %94 = load ptr, ptr %3, align 8
  ret ptr %94
}