; Function Attrs: nounwind uwtable
define internal ptr @methodcaller_reduce(ptr noundef readonly captures(none) %0, ptr readnone captures(none) %1) #0 {
  %3 = alloca [2 x ptr], align 16
  %4 = getelementptr inbounds nuw i8, ptr %0, i64 32
  %5 = load ptr, ptr %4, align 8, !tbaa !86
  %.not = icmp eq ptr %5, null
  br i1 %.not, label %9, label %6

6:                                                ; preds = %2
  %7 = getelementptr i8, ptr %5, i64 16
  %.val31 = load i64, ptr %7, align 8, !tbaa !90
  %8 = icmp eq i64 %.val31, 0
  br i1 %8, label %9, label %37

9:                                                ; preds = %6, %2
  %10 = getelementptr inbounds nuw i8, ptr %0, i64 24
  %11 = load ptr, ptr %10, align 8, !tbaa !85
  %12 = getelementptr i8, ptr %11, i64 16
  %.val32 = load i64, ptr %12, align 8, !tbaa !43
  %13 = add i64 %.val32, 1
  %14 = tail call ptr @PyTuple_New(i64 noundef %13) #7
  %15 = icmp eq ptr %14, null
  br i1 %15, label %55, label %16

16:                                               ; preds = %9
  %17 = getelementptr inbounds nuw i8, ptr %0, i64 16
  %18 = load ptr, ptr %17, align 8, !tbaa !83
  %19 = load i32, ptr %18, align 8, !tbaa !18
  %20 = icmp slt i32 %19, 0
  br i1 %20, label %_Py_NewRef.exit, label %21

21:                                               ; preds = %16
  %22 = add nuw i32 %19, 1
  store i32 %22, ptr %18, align 8, !tbaa !18
  br label %_Py_NewRef.exit

_Py_NewRef.exit:                                  ; preds = %16, %21
  %23 = getelementptr inbounds nuw i8, ptr %14, i64 24
  store ptr %18, ptr %23, align 8, !tbaa !17
  %24 = icmp sgt i64 %.val32, 0
  br i1 %24, label %.lr.ph, label %._crit_edge

.lr.ph:                                           ; preds = %_Py_NewRef.exit, %_Py_NewRef.exit33
  %.02534 = phi i64 [ %29, %_Py_NewRef.exit33 ], [ 0, %_Py_NewRef.exit ]
  %25 = load ptr, ptr %10, align 8, !tbaa !85
  %26 = getelementptr inbounds nuw i8, ptr %25, i64 24
  %27 = getelementptr [1 x ptr], ptr %26, i64 0, i64 %.02534
  %28 = load ptr, ptr %27, align 8, !tbaa !17
  %29 = add nuw nsw i64 %.02534, 1
  %30 = load i32, ptr %28, align 8, !tbaa !18
  %31 = icmp slt i32 %30, 0
  br i1 %31, label %_Py_NewRef.exit33, label %32

32:                                               ; preds = %.lr.ph
  %33 = add nuw i32 %30, 1
  store i32 %33, ptr %28, align 8, !tbaa !18
  br label %_Py_NewRef.exit33

_Py_NewRef.exit33:                                ; preds = %.lr.ph, %32
  %34 = getelementptr [1 x ptr], ptr %23, i64 0, i64 %29
  store ptr %28, ptr %34, align 8, !tbaa !17
  %exitcond.not = icmp eq i64 %29, %.val32
  br i1 %exitcond.not, label %._crit_edge, label %.lr.ph, !llvm.loop !94

._crit_edge:                                      ; preds = %_Py_NewRef.exit33, %_Py_NewRef.exit
  %35 = getelementptr i8, ptr %0, i64 8
  %.val30 = load ptr, ptr %35, align 8, !tbaa !19
  %36 = tail call ptr (ptr, ...) @Py_BuildValue(ptr noundef nonnull @.str.67, ptr noundef %.val30, ptr noundef nonnull %14) #7
  br label %55

37:                                               ; preds = %6
  call void @llvm.lifetime.start.p0(i64 16, ptr nonnull %3) #7
  %38 = tail call ptr @PyImport_ImportModuleAttrString(ptr noundef nonnull @.str.89, ptr noundef nonnull @.str.90) #7
  %.not29 = icmp eq ptr %38, null
  br i1 %.not29, label %54, label %39

39:                                               ; preds = %37
  %40 = getelementptr i8, ptr %0, i64 8
  %.val = load ptr, ptr %40, align 8, !tbaa !19
  store ptr %.val, ptr %3, align 16, !tbaa !17
  %41 = getelementptr inbounds nuw i8, ptr %0, i64 16
  %42 = load ptr, ptr %41, align 8, !tbaa !83
  %43 = getelementptr inbounds nuw i8, ptr %3, i64 8
  store ptr %42, ptr %43, align 8, !tbaa !17
  %44 = load ptr, ptr %4, align 8, !tbaa !86
  %45 = call ptr @PyObject_VectorcallDict(ptr noundef nonnull %38, ptr noundef nonnull %3, i64 noundef 2, ptr noundef %44) #7
  %46 = load i32, ptr %38, align 8, !tbaa !18
  %.not.i = icmp sgt i32 %46, -1
  br i1 %.not.i, label %47, label %Py_DECREF.exit

47:                                               ; preds = %39
  %48 = add nsw i32 %46, -1
  store i32 %48, ptr %38, align 8, !tbaa !18
  %49 = icmp eq i32 %48, 0
  br i1 %49, label %50, label %Py_DECREF.exit

50:                                               ; preds = %47
  call void @_Py_Dealloc(ptr noundef nonnull %38) #7
  br label %Py_DECREF.exit

Py_DECREF.exit:                                   ; preds = %39, %47, %50
  %51 = getelementptr inbounds nuw i8, ptr %0, i64 24
  %52 = load ptr, ptr %51, align 8, !tbaa !85
  %53 = call ptr (ptr, ...) @Py_BuildValue(ptr noundef nonnull @.str.91, ptr noundef %45, ptr noundef %52) #7
  br label %54

54:                                               ; preds = %37, %Py_DECREF.exit
  %.2 = phi ptr [ %53, %Py_DECREF.exit ], [ null, %37 ]
  call void @llvm.lifetime.end.p0(i64 16, ptr nonnull %3) #7
  br label %55

55:                                               ; preds = %._crit_edge, %9, %54
  %.1 = phi ptr [ %.2, %54 ], [ %36, %._crit_edge ], [ null, %9 ]
  ret ptr %.1
}